target datalayout = "e-m:e-p270:32:32-p271:32:32-p272:64:64-i64:64-i128:128-f80:128-n8:16:32:64-S128"
target triple = "x86_64-unknown-linux-gnu"

%struct.QemuMutex = type { %union.pthread_mutex_t, i8 }
%union.pthread_mutex_t = type { %struct.__pthread_mutex_s }
%struct.__pthread_mutex_s = type { i32, i32, i32, i32, i32, i16, i16, %struct.__pthread_internal_list }
%struct.__pthread_internal_list = type { ptr, ptr }
%struct.BlockDriverState = type { i32, i8, i8, i8, i8, i8, ptr, ptr, ptr, %struct.anon.0, i8, [4096 x i8], [4096 x i8], [4096 x i8], [16 x i8], ptr, [4096 x i8], %struct.BlockLimits, i32, i32, i32, i32, [32 x i8], %union.anon, %union.anon.1, %union.anon.2, i32, [16 x %struct.anon.3], ptr, %struct.anon.4, ptr, ptr, %struct.anon.5, ptr, ptr, i32, ptr, i64, i64, %struct.QemuMutex, %struct.anon.6, %struct.Stat64, i32, i32, i32, i32, i32, i32, %struct.QemuMutex, %struct.anon.7, %struct.CoQueue, i8, i32, i8, %struct.CoMutex, ptr, ptr }
%struct.anon.0 = type { ptr }
%struct.BlockLimits = type { i32, i64, i32, i64, i32, i32, i32, i64, i32, i64, i64, i32, i8, i32, i32, i32, i32, i32, i32, i32 }
%union.anon = type { %struct.QTailQLink }
%struct.QTailQLink = type { ptr, ptr }
%union.anon.1 = type { %struct.QTailQLink }
%union.anon.2 = type { %struct.QTailQLink }
%struct.anon.3 = type { ptr }
%struct.anon.4 = type { ptr }
%struct.anon.5 = type { ptr }
%struct.anon.6 = type { ptr }
%struct.Stat64 = type { i64 }
%struct.anon.7 = type { ptr }
%struct.CoQueue = type { %struct.anon.8 }
%struct.anon.8 = type { ptr, ptr }
%struct.CoMutex = type { i32, ptr, %struct.anon.9, %struct.anon.9, i32, i32, ptr }
%struct.anon.9 = type { ptr }
%struct.MirrorBlockJob = type { %struct.BlockJob, ptr, ptr, ptr, ptr, ptr, ptr, ptr, i8, i32, i8, i32, i32, i32, i8, i8, i64, i64, i64, ptr, ptr, ptr, ptr, %struct.anon.14, i32, i64, ptr, i32, i64, %union.anon.15, i32, i8, i32, i32, i8, i32, i64, i8, i8 }
%struct.BlockJob = type { %struct.Job, i32, i64, %struct.RateLimit, ptr, %struct.Notifier, %struct.Notifier, %struct.Notifier, %struct.Notifier, %struct.Notifier, ptr }
%struct.Job = type { ptr, ptr, ptr, i8, i8, ptr, ptr, %struct.ProgressMeter, ptr, i32, i32, %struct.QEMUTimer, i32, i8, i8, i8, i8, i8, i8, i32, ptr, %struct.NotifierList, %struct.NotifierList, %struct.NotifierList, %struct.NotifierList, %struct.NotifierList, %struct.anon.11, ptr, %struct.anon.12 }
%struct.ProgressMeter = type { i64, i64, %struct.QemuMutex }
%struct.QEMUTimer = type { i64, ptr, ptr, ptr, ptr, i32, i32 }
%struct.NotifierList = type { %struct.anon.10 }
%struct.anon.10 = type { ptr }
%struct.anon.11 = type { ptr, ptr }
%struct.anon.12 = type { ptr, ptr }
%struct.RateLimit = type { %struct.QemuMutex, i64, i64, i64, i64, i64 }
%struct.Notifier = type { ptr, %struct.anon.13 }
%struct.anon.13 = type { ptr, ptr }
%struct.anon.14 = type { ptr, ptr }
%union.anon.15 = type { %struct.QTailQLink }
%struct.BdrvChild = type { ptr, ptr, ptr, i32, ptr, i64, i64, i8, i8, %struct.anon.16, %struct.anon.17 }
%struct.anon.16 = type { ptr, ptr }
%struct.anon.17 = type { ptr, ptr }
%struct.QEMUIOVector = type { ptr, i32, %union.anon.18 }
%union.anon.18 = type { %struct.anon.19 }
%struct.anon.19 = type { i32, %struct.iovec }
%struct.iovec = type { ptr, i64 }
%struct.MirrorOp = type { ptr, %struct.QEMUIOVector, i64, i64, ptr, i8, i8, i8, %struct.CoQueue, ptr, ptr, %union.anon.21 }
%union.anon.21 = type { %struct.QTailQLink }

@.str.1 = private unnamed_addr constant [23 x i8] c"../qemu/block/mirror.c\00", align 1
@__func__.active_write_settle = private unnamed_addr constant [20 x i8] c"active_write_settle\00", align 1
@.str.17 = private unnamed_addr constant [43 x i8] c"!bdrv_get_dirty_count(op->s->dirty_bitmap)\00", align 1
@__PRETTY_FUNCTION__.active_write_settle = private unnamed_addr constant [37 x i8] c"void active_write_settle(MirrorOp *)\00", align 1

; Function Attrs: nounwind sspstrong uwtable
define internal void @active_write_settle(ptr noundef %op) #0 {
entry:
  %op.addr = alloca ptr, align 8
  %start_chunk = alloca i64, align 8
  %end_chunk = alloca i64, align 8
  %tmp = alloca i8, align 1
  %atomic-temp = alloca i8, align 1
  %source = alloca ptr, align 8
  store ptr %op, ptr %op.addr, align 8
  %0 = load ptr, ptr %op.addr, align 8
  %offset = getelementptr inbounds %struct.MirrorOp, ptr %0, i32 0, i32 2
  %1 = load i64, ptr %offset, align 8
  %2 = load ptr, ptr %op.addr, align 8
  %s = getelementptr inbounds %struct.MirrorOp, ptr %2, i32 0, i32 0
  %3 = load ptr, ptr %s, align 8
  %granularity = getelementptr inbounds %struct.MirrorBlockJob, ptr %3, i32 0, i32 16
  %4 = load i64, ptr %granularity, align 8
  %div = sdiv i64 %1, %4
  store i64 %div, ptr %start_chunk, align 8
  %5 = load ptr, ptr %op.addr, align 8
  %offset1 = getelementptr inbounds %struct.MirrorOp, ptr %5, i32 0, i32 2
  %6 = load i64, ptr %offset1, align 8
  %7 = load ptr, ptr %op.addr, align 8
  %bytes = getelementptr inbounds %struct.MirrorOp, ptr %7, i32 0, i32 3
  %8 = load i64, ptr %bytes, align 8
  %add = add i64 %6, %8
  %9 = load ptr, ptr %op.addr, align 8
  %s2 = getelementptr inbounds %struct.MirrorOp, ptr %9, i32 0, i32 0
  %10 = load ptr, ptr %s2, align 8
  %granularity3 = getelementptr inbounds %struct.MirrorBlockJob, ptr %10, i32 0, i32 16
  %11 = load i64, ptr %granularity3, align 8
  %add4 = add i64 %add, %11
  %sub = sub i64 %add4, 1
  %12 = load ptr, ptr %op.addr, align 8
  %s5 = getelementptr inbounds %struct.MirrorOp, ptr %12, i32 0, i32 0
  %13 = load ptr, ptr %s5, align 8
  %granularity6 = getelementptr inbounds %struct.MirrorBlockJob, ptr %13, i32 0, i32 16
  %14 = load i64, ptr %granularity6, align 8
  %div7 = udiv i64 %sub, %14
  store i64 %div7, ptr %end_chunk, align 8
  %15 = load ptr, ptr %op.addr, align 8
  %s8 = getelementptr inbounds %struct.MirrorOp, ptr %15, i32 0, i32 0
  %16 = load ptr, ptr %s8, align 8
  %in_active_write_counter = getelementptr inbounds %struct.MirrorBlockJob, ptr %16, i32 0, i32 35
  %17 = load i32, ptr %in_active_write_counter, align 4
  %dec = add i32 %17, -1
  store i32 %dec, ptr %in_active_write_counter, align 4
  %tobool = icmp ne i32 %dec, 0
  br i1 %tobool, label %if.end20, label %land.lhs.true

land.lhs.true:                                    ; preds = %entry
  br label %while.cond

while.cond:                                       ; preds = %do.end, %land.lhs.true
  br i1 false, label %while.body, label %while.end

while.body:                                       ; preds = %while.cond
  br label %do.body

do.body:                                          ; preds = %while.body
  call void @g_assertion_message_expr(ptr noundef null, ptr noundef @.str.1, i32 noundef 1509, ptr noundef @__func__.active_write_settle, ptr noundef null) #11
  unreachable

do.end:                                           ; No predecessors!
  br label %while.cond

while.end:                                        ; preds = %while.cond
  %18 = load ptr, ptr %op.addr, align 8
  %s9 = getelementptr inbounds %struct.MirrorOp, ptr %18, i32 0, i32 0
  %19 = load ptr, ptr %s9, align 8
  %actively_synced = getelementptr inbounds %struct.MirrorBlockJob, ptr %19, i32 0, i32 14
  %20 = load atomic i8, ptr %actively_synced monotonic, align 8
  store i8 %20, ptr %atomic-temp, align 1
  %21 = load i8, ptr %atomic-temp, align 1
  %tobool10 = trunc i8 %21 to i1
  %frombool = zext i1 %tobool10 to i8
  store i8 %frombool, ptr %tmp, align 1
  %22 = load i8, ptr %tmp, align 1
  %tobool11 = trunc i8 %22 to i1
  br i1 %tobool11, label %if.then, label %if.end20

if.then:                                          ; preds = %while.end
  %23 = load ptr, ptr %op.addr, align 8
  %s12 = getelementptr inbounds %struct.MirrorOp, ptr %23, i32 0, i32 0
  %24 = load ptr, ptr %s12, align 8
  %mirror_top_bs = getelementptr inbounds %struct.MirrorBlockJob, ptr %24, i32 0, i32 2
  %25 = load ptr, ptr %mirror_top_bs, align 8
  %backing = getelementptr inbounds %struct.BlockDriverState, ptr %25, i32 0, i32 30
  %26 = load ptr, ptr %backing, align 8
  store ptr %26, ptr %source, align 8
  %27 = load ptr, ptr %source, align 8
  %bs = getelementptr inbounds %struct.BdrvChild, ptr %27, i32 0, i32 0
  %28 = load ptr, ptr %bs, align 8
  %parents = getelementptr inbounds %struct.BlockDriverState, ptr %28, i32 0, i32 32
  %lh_first = getelementptr inbounds %struct.anon.5, ptr %parents, i32 0, i32 0
  %29 = load ptr, ptr %lh_first, align 8
  %30 = load ptr, ptr %source, align 8
  %cmp = icmp eq ptr %29, %30
  br i1 %cmp, label %land.lhs.true13, label %if.end19

land.lhs.true13:                                  ; preds = %if.then
  %31 = load ptr, ptr %source, align 8
  %next_parent = getelementptr inbounds %struct.BdrvChild, ptr %31, i32 0, i32 10
  %le_next = getelementptr inbounds %struct.anon.17, ptr %next_parent, i32 0, i32 0
  %32 = load ptr, ptr %le_next, align 8
  %cmp14 = icmp eq ptr %32, null
  br i1 %cmp14, label %if.then15, label %if.end19

if.then15:                                        ; preds = %land.lhs.true13
  %33 = load ptr, ptr %op.addr, align 8
  %s16 = getelementptr inbounds %struct.MirrorOp, ptr %33, i32 0, i32 0
  %34 = load ptr, ptr %s16, align 8
  %dirty_bitmap = getelementptr inbounds %struct.MirrorBlockJob, ptr %34, i32 0, i32 20
  %35 = load ptr, ptr %dirty_bitmap, align 8
  %call = call i64 @bdrv_get_dirty_count(ptr noundef %35)
  %tobool17 = icmp ne i64 %call, 0
  br i1 %tobool17, label %if.else, label %if.then18

if.then18:                                        ; preds = %if.then15
  br label %if.end

if.else:                                          ; preds = %if.then15
  call void @__assert_fail(ptr noundef @.str.17, ptr noundef @.str.1, i32 noundef 1519, ptr noundef @__PRETTY_FUNCTION__.active_write_settle) #9
  unreachable

if.end:                                           ; preds = %if.then18
  br label %if.end19

if.end19:                                         ; preds = %if.end, %land.lhs.true13, %if.then
  br label %if.end20

if.end20:                                         ; preds = %if.end19, %while.end, %entry
  %36 = load ptr, ptr %op.addr, align 8
  %s21 = getelementptr inbounds %struct.MirrorOp, ptr %36, i32 0, i32 0
  %37 = load ptr, ptr %s21, align 8
  %in_flight_bitmap = getelementptr inbounds %struct.MirrorBlockJob, ptr %37, i32 0, i32 26
  %38 = load ptr, ptr %in_flight_bitmap, align 8
  %39 = load i64, ptr %start_chunk, align 8
  %40 = load i64, ptr %end_chunk, align 8
  %41 = load i64, ptr %start_chunk, align 8
  %sub22 = sub i64 %40, %41
  call void @bitmap_clear(ptr noundef %38, i64 noundef %39, i64 noundef %sub22)
  br label %do.body23

do.body23:                                        ; preds = %if.end20
  %42 = load ptr, ptr %op.addr, align 8
  %next = getelementptr inbounds %struct.MirrorOp, ptr %42, i32 0, i32 11
  %43 = load ptr, ptr %next, align 8
  %cmp24 = icmp ne ptr %43, null
  br i1 %cmp24, label %if.then25, label %if.else30

if.then25:                                        ; preds = %do.body23
  %44 = load ptr, ptr %op.addr, align 8
  %next26 = getelementptr inbounds %struct.MirrorOp, ptr %44, i32 0, i32 11
  %tql_prev = getelementptr inbounds %struct.QTailQLink, ptr %next26, i32 0, i32 1
  %45 = load ptr, ptr %tql_prev, align 8
  %46 = load ptr, ptr %op.addr, align 8
  %next27 = getelementptr inbounds %struct.MirrorOp, ptr %46, i32 0, i32 11
  %47 = load ptr, ptr %next27, align 8
  %next28 = getelementptr inbounds %struct.MirrorOp, ptr %47, i32 0, i32 11
  %tql_prev29 = getelementptr inbounds %struct.QTailQLink, ptr %next28, i32 0, i32 1
  store ptr %45, ptr %tql_prev29, align 8
  br label %if.end35

if.else30:                                        ; preds = %do.body23
  %48 = load ptr, ptr %op.addr, align 8
  %next31 = getelementptr inbounds %struct.MirrorOp, ptr %48, i32 0, i32 11
  %tql_prev32 = getelementptr inbounds %struct.QTailQLink, ptr %next31, i32 0, i32 1
  %49 = load ptr, ptr %tql_prev32, align 8
  %50 = load ptr, ptr %op.addr, align 8
  %s33 = getelementptr inbounds %struct.MirrorOp, ptr %50, i32 0, i32 0
  %51 = load ptr, ptr %s33, align 8
  %ops_in_flight = getelementptr inbounds %struct.MirrorBlockJob, ptr %51, i32 0, i32 29
  %tql_prev34 = getelementptr inbounds %struct.QTailQLink, ptr %ops_in_flight, i32 0, i32 1
  store ptr %49, ptr %tql_prev34, align 8
  br label %if.end35

if.end35:                                         ; preds = %if.else30, %if.then25
  %52 = load ptr, ptr %op.addr, align 8
  %next36 = getelementptr inbounds %struct.MirrorOp, ptr %52, i32 0, i32 11
  %53 = load ptr, ptr %next36, align 8
  %54 = load ptr, ptr %op.addr, align 8
  %next37 = getelementptr inbounds %struct.MirrorOp, ptr %54, i32 0, i32 11
  %tql_prev38 = getelementptr inbounds %struct.QTailQLink, ptr %next37, i32 0, i32 1
  %55 = load ptr, ptr %tql_prev38, align 8
  %tql_next = getelementptr inbounds %struct.QTailQLink, ptr %55, i32 0, i32 0
  store ptr %53, ptr %tql_next, align 8
  %56 = load ptr, ptr %op.addr, align 8
  %next39 = getelementptr inbounds %struct.MirrorOp, ptr %56, i32 0, i32 11
  %tql_prev40 = getelementptr inbounds %struct.QTailQLink, ptr %next39, i32 0, i32 1
  store ptr null, ptr %tql_prev40, align 8
  %57 = load ptr, ptr %op.addr, align 8
  %next41 = getelementptr inbounds %struct.MirrorOp, ptr %57, i32 0, i32 11
  %tql_next42 = getelementptr inbounds %struct.QTailQLink, ptr %next41, i32 0, i32 0
  store ptr null, ptr %tql_next42, align 8
  %58 = load ptr, ptr %op.addr, align 8
  %next43 = getelementptr inbounds %struct.MirrorOp, ptr %58, i32 0, i32 11
  store ptr null, ptr %next43, align 8
  br label %do.end44

do.end44:                                         ; preds = %if.end35
  %59 = load ptr, ptr %op.addr, align 8
  %waiting_requests = getelementptr inbounds %struct.MirrorOp, ptr %59, i32 0, i32 8
  call void @qemu_co_queue_restart_all(ptr noundef %waiting_requests)
  %60 = load ptr, ptr %op.addr, align 8
  call void @g_free(ptr noundef %60)
  ret void
}