; Function Attrs: nounwind sspstrong uwtable
define internal void @active_write_settle(ptr noundef %op) #0 {
entry:
  %offset = getelementptr inbounds nuw i8, ptr %op, i64 48
  %0 = load i64, ptr %offset, align 8
  %1 = load ptr, ptr %op, align 8
  %granularity = getelementptr inbounds nuw i8, ptr %1, i64 608
  %2 = load i64, ptr %granularity, align 8
  %div = sdiv i64 %0, %2
  %bytes = getelementptr inbounds nuw i8, ptr %op, i64 56
  %3 = load i64, ptr %bytes, align 8
  %add = add i64 %0, -1
  %add4 = add i64 %add, %2
  %sub = add i64 %add4, %3
  %div7 = udiv i64 %sub, %2
  %in_active_write_counter = getelementptr inbounds nuw i8, ptr %1, i64 756
  %4 = load i32, ptr %in_active_write_counter, align 4
  %dec = add i32 %4, -1
  store i32 %dec, ptr %in_active_write_counter, align 4
  %tobool.not = icmp eq i32 %dec, 0
  %.pre27 = load ptr, ptr %op, align 8
  br i1 %tobool.not, label %while.end, label %if.end20

while.end:                                        ; preds = %entry
  %actively_synced = getelementptr inbounds nuw i8, ptr %.pre27, i64 600
  %5 = load atomic i8, ptr %actively_synced monotonic, align 8
  %tobool10 = trunc i8 %5 to i1
  br i1 %tobool10, label %if.then, label %if.end20

if.then:                                          ; preds = %while.end
  %mirror_top_bs = getelementptr inbounds nuw i8, ptr %.pre27, i64 528
  %6 = load ptr, ptr %mirror_top_bs, align 8
  %backing = getelementptr inbounds nuw i8, ptr %6, i64 16832
  %7 = load ptr, ptr %backing, align 8
  %8 = load ptr, ptr %7, align 8
  %parents = getelementptr inbounds nuw i8, ptr %8, i64 16848
  %9 = load ptr, ptr %parents, align 8
  %cmp = icmp eq ptr %9, %7
  br i1 %cmp, label %land.lhs.true13, label %if.end20

land.lhs.true13:                                  ; preds = %if.then
  %next_parent = getelementptr inbounds nuw i8, ptr %7, i64 80
  %10 = load ptr, ptr %next_parent, align 8
  %cmp14 = icmp eq ptr %10, null
  br i1 %cmp14, label %if.then15, label %if.end20

if.then15:                                        ; preds = %land.lhs.true13
  %dirty_bitmap = getelementptr inbounds nuw i8, ptr %.pre27, i64 640
  %11 = load ptr, ptr %dirty_bitmap, align 8
  %call = tail call i64 @bdrv_get_dirty_count(ptr noundef %11) #12
  %tobool17.not = icmp eq i64 %call, 0
  br i1 %tobool17.not, label %if.then15.if.end20_crit_edge, label %if.else

if.then15.if.end20_crit_edge:                     ; preds = %if.then15
  %.pre = load ptr, ptr %op, align 8
  br label %if.end20

if.else:                                          ; preds = %if.then15
  tail call void @__assert_fail(ptr noundef nonnull @.str.17, ptr noundef nonnull @.str.1, i32 noundef 1519, ptr noundef nonnull @__PRETTY_FUNCTION__.active_write_settle) #13
  unreachable

if.end20:                                         ; preds = %if.then15.if.end20_crit_edge, %if.then, %land.lhs.true13, %while.end, %entry
  %12 = phi ptr [ %.pre, %if.then15.if.end20_crit_edge ], [ %.pre27, %if.then ], [ %.pre27, %land.lhs.true13 ], [ %.pre27, %while.end ], [ %.pre27, %entry ]
  %in_flight_bitmap = getelementptr inbounds nuw i8, ptr %12, i64 696
  %13 = load ptr, ptr %in_flight_bitmap, align 8
  %sub22 = sub i64 %div7, %div
  tail call void @bitmap_clear(ptr noundef %13, i64 noundef %div, i64 noundef %sub22) #12
  %next = getelementptr inbounds nuw i8, ptr %op, i64 112
  %14 = load ptr, ptr %next, align 8
  %cmp24.not = icmp eq ptr %14, null
  %tql_prev32 = getelementptr inbounds nuw i8, ptr %op, i64 120
  %15 = load ptr, ptr %tql_prev32, align 8
  br i1 %cmp24.not, label %if.else30, label %if.then25

if.then25:                                        ; preds = %if.end20
  %tql_prev29 = getelementptr inbounds nuw i8, ptr %14, i64 120
  store ptr %15, ptr %tql_prev29, align 8
  br label %if.end35

if.else30:                                        ; preds = %if.end20
  %16 = load ptr, ptr %op, align 8
  %tql_prev34 = getelementptr inbounds nuw i8, ptr %16, i64 728
  store ptr %15, ptr %tql_prev34, align 8
  br label %if.end35

if.end35:                                         ; preds = %if.else30, %if.then25
  %17 = load ptr, ptr %next, align 8
  store ptr %17, ptr %15, align 8
  %waiting_requests = getelementptr inbounds nuw i8, ptr %op, i64 80
  tail call void @llvm.memset.p0.i64(ptr noundef nonnull align 8 dereferenceable(16) %next, i8 0, i64 16, i1 false)
  tail call void @qemu_co_queue_restart_all(ptr noundef nonnull %waiting_requests) #12
  tail call void @g_free(ptr noundef nonnull %op) #12
  ret void
}